; Function Attrs: nounwind uwtable
define zeroext range(i8 0, 2) i8 @l_Std_DHashMap_Internal_AssocList_contains___at_Lean_IR_Borrow_OwnedSet_insert___spec__1(ptr noundef readonly captures(none) %0, ptr noundef %1) local_unnamed_addr #1 {
  %3 = getelementptr inbounds nuw i8, ptr %0, i64 8
  %4 = getelementptr inbounds nuw i8, ptr %0, i64 16
  br label %.critedge

.critedge:                                        ; preds = %.critedge.backedge, %2
  %.011 = phi ptr [ %1, %2 ], [ %18, %.critedge.backedge ]
  %5 = ptrtoint ptr %.011 to i64
  %6 = and i64 %5, 1
  %.not.i = icmp eq i64 %6, 0
  br i1 %.not.i, label %10, label %7

7:                                                ; preds = %.critedge
  %8 = lshr i64 %5, 1
  %9 = trunc i64 %8 to i32
  br label %lean_obj_tag.exit

10:                                               ; preds = %.critedge
  %11 = getelementptr i8, ptr %.011, i64 4
  %.val.i = load i32, ptr %11, align 4
  %12 = lshr i32 %.val.i, 24
  br label %lean_obj_tag.exit

lean_obj_tag.exit:                                ; preds = %7, %10
  %.0.i = phi i32 [ %9, %7 ], [ %12, %10 ]
  %13 = icmp eq i32 %.0.i, 0
  br i1 %13, label %37, label %14

14:                                               ; preds = %lean_obj_tag.exit
  %15 = getelementptr inbounds nuw i8, ptr %.011, i64 8
  %16 = load ptr, ptr %15, align 8, !tbaa !9
  %17 = getelementptr inbounds nuw i8, ptr %.011, i64 24
  %18 = load ptr, ptr %17, align 8, !tbaa !9
  %19 = getelementptr inbounds nuw i8, ptr %16, i64 8
  %20 = load ptr, ptr %19, align 8, !tbaa !9
  %21 = getelementptr inbounds nuw i8, ptr %16, i64 16
  %22 = load ptr, ptr %21, align 8, !tbaa !9
  %23 = load ptr, ptr %3, align 8, !tbaa !9
  %24 = load ptr, ptr %4, align 8, !tbaa !9
  %25 = tail call zeroext i8 @lean_name_eq(ptr noundef %20, ptr noundef %23) #6
  %26 = icmp eq i8 %25, 0
  br i1 %26, label %.critedge.backedge, label %27

27:                                               ; preds = %14
  %28 = ptrtoint ptr %22 to i64
  %29 = and i64 %28, 1
  %30 = icmp ne i64 %29, 0
  %31 = ptrtoint ptr %24 to i64
  %32 = and i64 %31, 1
  %33 = icmp ne i64 %32, 0
  %or.cond.i = select i1 %30, i1 %33, i1 false
  br i1 %or.cond.i, label %34, label %lean_nat_eq.exit.i, !prof !12

34:                                               ; preds = %27
  %35 = icmp eq ptr %22, %24
  br i1 %35, label %37, label %.critedge.backedge

.critedge.backedge:                               ; preds = %34, %lean_nat_eq.exit.i, %14
  br label %.critedge

lean_nat_eq.exit.i:                               ; preds = %27
  %36 = tail call zeroext i1 @lean_nat_big_eq(ptr noundef %22, ptr noundef %24) #6
  br i1 %36, label %37, label %.critedge.backedge

37:                                               ; preds = %34, %lean_nat_eq.exit.i, %lean_obj_tag.exit
  %.1 = phi i8 [ 1, %lean_nat_eq.exit.i ], [ 0, %lean_obj_tag.exit ], [ 1, %34 ]
  ret i8 %.1
}